; Function Attrs: nofree nounwind uwtable
define internal fastcc noundef ptr @get_H5EA_class(i8 %.5.val) unnamed_addr #7 {
  %1 = icmp ult i8 %.5.val, 3
  br i1 %1, label %switch.lookup, label %2

2:                                                ; preds = %0
  %3 = zext i8 %.5.val to i32
  %4 = load ptr, ptr @stderr, align 8, !tbaa !8
  %5 = tail call i32 (ptr, ptr, ...) @fprintf(ptr noundef %4, ptr noundef nonnull @.str.95, i32 noundef %3) #11
  br label %7

switch.lookup:                                    ; preds = %0
  %6 = zext nneg i8 %.5.val to i64
  %switch.gep = getelementptr inbounds nuw [3 x ptr], ptr @switch.table.get_H5EA_class, i64 0, i64 %6
  %switch.load = load ptr, ptr %switch.gep, align 8
  br label %7

7:                                                ; preds = %switch.lookup, %2
  %.0 = phi ptr [ null, %2 ], [ %switch.load, %switch.lookup ]
  ret ptr %.0
}